target datalayout = "e-m:e-p270:32:32-p271:32:32-p272:64:64-i64:64-i128:128-f80:128-n8:16:32:64-S128"
target triple = "x86_64-pc-linux-gnu"

%"struct.doctest::IContextScope" = type { ptr }
%"struct.doctest::detail::ContextScopeBase" = type <{ %"struct.doctest::IContextScope", i8, [7 x i8] }>

; Function Attrs: mustprogress nounwind uwtable
define internal void @"_ZN7doctest6detail12ContextScopeIZN12_GLOBAL__N_116check_utf8stringEbiiiiE3$_1ED2Ev"(ptr noundef nonnull align 8 dereferenceable(24) %0) unnamed_addr #1 align 2 personality ptr @__gxx_personality_v0 {
  %2 = alloca ptr, align 8
  store ptr %0, ptr %2, align 8, !tbaa !140
  %3 = load ptr, ptr %2, align 8
  store ptr getelementptr inbounds inrange(-16, 24) ({ [5 x ptr] }, ptr @"_ZTVN7doctest6detail12ContextScopeIZN12_GLOBAL__N_116check_utf8stringEbiiiiE3$_1EE", i32 0, i32 0, i32 2), ptr %3, align 8, !tbaa !83
  %4 = getelementptr inbounds nuw %"struct.doctest::detail::ContextScopeBase", ptr %3, i32 0, i32 1
  %5 = load i8, ptr %4, align 8, !tbaa !85, !range !56, !noundef !57
  %6 = trunc i8 %5 to i1
  br i1 %6, label %7, label %9

7:                                                ; preds = %1
  invoke void @_ZN7doctest6detail16ContextScopeBase7destroyEv(ptr noundef nonnull align 8 dereferenceable(9) %3)
          to label %8 unwind label %10

8:                                                ; preds = %7
  br label %9

9:                                                ; preds = %8, %1
  call void @_ZN7doctest13IContextScopeD2Ev(ptr noundef nonnull align 8 dereferenceable(9) %3) #7
  ret void

10:                                               ; preds = %7
  %11 = landingpad { ptr, i32 }
          catch ptr null
  %12 = extractvalue { ptr, i32 } %11, 0
  call void @__clang_call_terminate(ptr %12) #28
  unreachable
}

; Function Attrs: mustprogress nounwind uwtable
define internal void @"_ZN7doctest6detail12ContextScopeIZN12_GLOBAL__N_116check_utf8stringEbiiiiE3$_1ED0Ev"(ptr noundef nonnull align 8 dereferenceable(24) %0) unnamed_addr #1 align 2 {
  %2 = alloca ptr, align 8
  store ptr %0, ptr %2, align 8, !tbaa !140
  %3 = load ptr, ptr %2, align 8
  call void @"_ZN7doctest6detail12ContextScopeIZN12_GLOBAL__N_116check_utf8stringEbiiiiE3$_1ED2Ev"(ptr noundef nonnull align 8 dereferenceable(24) %3) #7
  call void @_ZdlPv(ptr noundef %3) #29
  ret void
}